target datalayout = "e-m:e-p270:32:32-p271:32:32-p272:64:64-i64:64-i128:128-f80:128-n8:16:32:64-S128"
target triple = "x86_64-pc-linux-gnu"

%struct.rb_data_type_struct = type { ptr, %struct.anon.36, ptr, ptr, i64 }
%struct.anon.36 = type { ptr, ptr, ptr, ptr, [1 x ptr] }
%struct.rb_iseq_struct = type { i64, i64, ptr, %union.anon.13 }
%union.anon.13 = type { %struct.anon.14 }
%struct.anon.14 = type { i64, i32 }
%struct.RBasic = type { i64, i64 }
%struct.RTypedData = type { %struct.RBasic, ptr, i64, ptr }

@.str = private unnamed_addr constant [10 x i8] c"../iseq.c\00", align 1
@rb_cISeq = dso_local global i64 0, align 8
@rb_eTypeError = external global i64, align 8
@iseqw_data_type = internal constant %struct.rb_data_type_struct { ptr @.str.157, %struct.anon.36 { ptr @iseqw_mark, ptr inttoptr (i64 -1 to ptr), ptr @iseqw_memsize, ptr @iseqw_ref_update, [1 x ptr] zeroinitializer }, ptr null, ptr null, i64 33 }, align 8
@.str.156 = private unnamed_addr constant [32 x i8] c"wrong iseq wrapper: %li\0B for %p\00", align 1

; Function Attrs: inlinehint nounwind sspstrong willreturn memory(none) uwtable
define internal zeroext i1 @RB_IMMEDIATE_P(i64 noundef %0) #7 {
  %2 = alloca i64, align 8
  store i64 %0, ptr %2, align 8, !tbaa !17
  %3 = load i64, ptr %2, align 8, !tbaa !17
  %4 = and i64 %3, 7
  %5 = icmp ne i64 %4, 0
  ret i1 %5
}

; Function Attrs: inlinehint nounwind sspstrong willreturn memory(none) uwtable
define internal zeroext i1 @RB_SPECIAL_CONST_P(i64 noundef %0) #7 {
  %2 = alloca i64, align 8
  store i64 %0, ptr %2, align 8, !tbaa !17
  %3 = load i64, ptr %2, align 8, !tbaa !17
  %4 = icmp eq i64 %3, 0
  br i1 %4, label %8, label %5

5:                                                ; preds = %1
  %6 = load i64, ptr %2, align 8, !tbaa !17
  %7 = call zeroext i1 @RB_IMMEDIATE_P(i64 noundef %6) #28
  br label %8

8:                                                ; preds = %5, %1
  %9 = phi i1 [ true, %1 ], [ %7, %5 ]
  ret i1 %9
}

; Function Attrs: inlinehint nounwind sspstrong uwtable
define internal i64 @rb_obj_written(i64 noundef %0, i64 noundef %1, i64 noundef %2, ptr noundef %3, i32 noundef %4) #5 {
  %6 = alloca i64, align 8
  %7 = alloca i64, align 8
  %8 = alloca i64, align 8
  %9 = alloca ptr, align 8
  %10 = alloca i32, align 4
  store i64 %0, ptr %6, align 8, !tbaa !17
  store i64 %1, ptr %7, align 8, !tbaa !17
  store i64 %2, ptr %8, align 8, !tbaa !17
  store ptr %3, ptr %9, align 8, !tbaa !137
  store i32 %4, ptr %10, align 4, !tbaa !56
  %11 = load i64, ptr %8, align 8, !tbaa !17
  %12 = call zeroext i1 @RB_SPECIAL_CONST_P(i64 noundef %11) #28
  br i1 %12, label %16, label %13

13:                                               ; preds = %5
  %14 = load i64, ptr %6, align 8, !tbaa !17
  %15 = load i64, ptr %8, align 8, !tbaa !17
  call void @rb_gc_writebarrier(i64 noundef %14, i64 noundef %15)
  br label %16

16:                                               ; preds = %13, %5
  %17 = load i64, ptr %6, align 8, !tbaa !17
  ret i64 %17
}

; Function Attrs: inlinehint nounwind sspstrong uwtable
define internal zeroext i1 @RTYPEDDATA_EMBEDDED_P(i64 noundef %0) #5 {
  %2 = alloca i64, align 8
  store i64 %0, ptr %2, align 8, !tbaa !17
  %3 = load i64, ptr %2, align 8, !tbaa !17
  %4 = inttoptr i64 %3 to ptr
  %5 = getelementptr inbounds nuw %struct.RTypedData, ptr %4, i32 0, i32 2
  %6 = load i64, ptr %5, align 8, !tbaa !401
  %7 = and i64 %6, 2
  %8 = icmp ne i64 %7, 0
  ret i1 %8
}

; Function Attrs: inlinehint nounwind sspstrong uwtable
define internal i64 @rb_obj_write(i64 noundef %0, ptr noundef %1, i64 noundef %2, ptr noundef %3, i32 noundef %4) #5 {
  %6 = alloca i64, align 8
  %7 = alloca ptr, align 8
  %8 = alloca i64, align 8
  %9 = alloca ptr, align 8
  %10 = alloca i32, align 4
  store i64 %0, ptr %6, align 8, !tbaa !17
  store ptr %1, ptr %7, align 8, !tbaa !66
  store i64 %2, ptr %8, align 8, !tbaa !17
  store ptr %3, ptr %9, align 8, !tbaa !137
  store i32 %4, ptr %10, align 4, !tbaa !56
  %11 = load i64, ptr %8, align 8, !tbaa !17
  %12 = load ptr, ptr %7, align 8, !tbaa !66
  store i64 %11, ptr %12, align 8, !tbaa !17
  %13 = load i64, ptr %6, align 8, !tbaa !17
  %14 = load i64, ptr %8, align 8, !tbaa !17
  %15 = load ptr, ptr %9, align 8, !tbaa !137
  %16 = load i32, ptr %10, align 4, !tbaa !56
  %17 = call i64 @rb_obj_written(i64 noundef %13, i64 noundef 36, i64 noundef %14, ptr noundef %15, i32 noundef %16)
  %18 = load i64, ptr %6, align 8, !tbaa !17
  ret i64 %18
}

; Function Attrs: inlinehint nounwind sspstrong uwtable
define internal ptr @RTYPEDDATA_GET_DATA(i64 noundef %0) #5 {
  %2 = alloca i64, align 8
  %3 = alloca i64, align 8
  store i64 %0, ptr %2, align 8, !tbaa !17
  call void @llvm.lifetime.start.p0(i64 8, ptr %3) #24
  store i64 32, ptr %3, align 8, !tbaa !17
  %4 = load i64, ptr %2, align 8, !tbaa !17
  %5 = call zeroext i1 @RTYPEDDATA_EMBEDDED_P(i64 noundef %4)
  br i1 %5, label %6, label %10

6:                                                ; preds = %1
  %7 = load i64, ptr %2, align 8, !tbaa !17
  %8 = inttoptr i64 %7 to ptr
  %9 = getelementptr i8, ptr %8, i64 32
  br label %15

10:                                               ; preds = %1
  %11 = load i64, ptr %2, align 8, !tbaa !17
  %12 = inttoptr i64 %11 to ptr
  %13 = getelementptr inbounds nuw %struct.RTypedData, ptr %12, i32 0, i32 3
  %14 = load ptr, ptr %13, align 8, !tbaa !398
  br label %15

15:                                               ; preds = %10, %6
  %16 = phi ptr [ %9, %6 ], [ %14, %10 ]
  call void @llvm.lifetime.end.p0(i64 8, ptr %3) #24
  ret ptr %16
}

; Function Attrs: nounwind sspstrong uwtable
define internal i64 @iseqw_new(ptr noundef %0) #0 {
  %2 = alloca i64, align 8
  %3 = alloca ptr, align 8
  %4 = alloca ptr, align 8
  %5 = alloca i64, align 8
  %6 = alloca i64, align 8
  %7 = alloca i64, align 8
  store ptr %0, ptr %3, align 8, !tbaa !7
  %8 = load ptr, ptr %3, align 8, !tbaa !7
  %9 = getelementptr inbounds nuw %struct.rb_iseq_struct, ptr %8, i32 0, i32 1
  %10 = load i64, ptr %9, align 8, !tbaa !267
  %11 = icmp ne i64 %10, 0
  br i1 %11, label %12, label %30

12:                                               ; preds = %1
  %13 = load ptr, ptr %3, align 8, !tbaa !7
  %14 = getelementptr inbounds nuw %struct.rb_iseq_struct, ptr %13, i32 0, i32 1
  %15 = load i64, ptr %14, align 8, !tbaa !267
  %16 = call ptr @rb_check_typeddata(i64 noundef %15, ptr noundef @iseqw_data_type)
  %17 = load ptr, ptr %16, align 8, !tbaa !7
  %18 = load ptr, ptr %3, align 8, !tbaa !7
  %19 = icmp ne ptr %17, %18
  br i1 %19, label %20, label %26

20:                                               ; preds = %12
  %21 = load i64, ptr @rb_eTypeError, align 8, !tbaa !17
  %22 = load ptr, ptr %3, align 8, !tbaa !7
  %23 = getelementptr inbounds nuw %struct.rb_iseq_struct, ptr %22, i32 0, i32 1
  %24 = load i64, ptr %23, align 8, !tbaa !267
  %25 = load ptr, ptr %3, align 8, !tbaa !7
  call void (i64, ptr, ...) @rb_raise(i64 noundef %21, ptr noundef @.str.156, i64 noundef %24, ptr noundef %25) #26
  unreachable

26:                                               ; preds = %12
  %27 = load ptr, ptr %3, align 8, !tbaa !7
  %28 = getelementptr inbounds nuw %struct.rb_iseq_struct, ptr %27, i32 0, i32 1
  %29 = load i64, ptr %28, align 8, !tbaa !267
  store i64 %29, ptr %2, align 8
  br label %51

30:                                               ; preds = %1
  call void @llvm.lifetime.start.p0(i64 8, ptr %4) #24
  call void @llvm.lifetime.start.p0(i64 8, ptr %5) #24
  call void @llvm.lifetime.start.p0(i64 8, ptr %6) #24
  %31 = load i64, ptr @rb_cISeq, align 8, !tbaa !17
  %32 = call i64 @rb_data_typed_object_zalloc(i64 noundef %31, i64 noundef 8, ptr noundef @iseqw_data_type)
  store i64 %32, ptr %6, align 8, !tbaa !17
  %33 = load i64, ptr %6, align 8, !tbaa !17
  %34 = call ptr @RTYPEDDATA_GET_DATA(i64 noundef %33)
  store ptr %34, ptr %4, align 8, !tbaa !258
  %35 = load i64, ptr %6, align 8, !tbaa !17
  store i64 %35, ptr %7, align 8, !tbaa !17
  call void @llvm.lifetime.end.p0(i64 8, ptr %6) #24
  %36 = load i64, ptr %7, align 8, !tbaa !17
  store i64 %36, ptr %5, align 8, !tbaa !17
  %37 = load i64, ptr %5, align 8, !tbaa !17
  %38 = load ptr, ptr %4, align 8, !tbaa !258
  %39 = load ptr, ptr %3, align 8, !tbaa !7
  %40 = ptrtoint ptr %39 to i64
  %41 = call i64 @rb_obj_write(i64 noundef %37, ptr noundef %38, i64 noundef %40, ptr noundef @.str, i32 noundef 1500)
  %42 = load ptr, ptr %3, align 8, !tbaa !7
  %43 = ptrtoint ptr %42 to i64
  %44 = load ptr, ptr %3, align 8, !tbaa !7
  %45 = getelementptr inbounds nuw %struct.rb_iseq_struct, ptr %44, i32 0, i32 1
  %46 = load i64, ptr %5, align 8, !tbaa !17
  %47 = call i64 @rb_obj_write(i64 noundef %43, ptr noundef %45, i64 noundef %46, ptr noundef @.str, i32 noundef 1503)
  %48 = load ptr, ptr %3, align 8, !tbaa !7
  %49 = ptrtoint ptr %48 to i64
  call void @rb_obj_freeze_inline(i64 noundef %49)
  %50 = load i64, ptr %5, align 8, !tbaa !17
  store i64 %50, ptr %2, align 8
  call void @llvm.lifetime.end.p0(i64 8, ptr %5) #24
  call void @llvm.lifetime.end.p0(i64 8, ptr %4) #24
  br label %51

51:                                               ; preds = %30, %26
  %52 = load i64, ptr %2, align 8
  ret i64 %52
}