; Function Attrs: nounwind sspstrong uwtable
define internal fastcc i64 @iseqw_new(ptr noundef %0) unnamed_addr #0 {
  %2 = getelementptr inbounds nuw i8, ptr %0, i64 8
  %3 = load i64, ptr %2, align 8, !tbaa !253
  %.not = icmp eq i64 %3, 0
  br i1 %.not, label %12, label %4

4:                                                ; preds = %1
  %5 = tail call ptr @rb_check_typeddata(i64 noundef %3, ptr noundef nonnull @iseqw_data_type) #20
  %6 = load ptr, ptr %5, align 8, !tbaa !244
  %.not19 = icmp eq ptr %6, %0
  br i1 %.not19, label %10, label %7

7:                                                ; preds = %4
  %8 = load i64, ptr @rb_eTypeError, align 8, !tbaa !42
  %9 = load i64, ptr %2, align 8, !tbaa !253
  tail call void (i64, ptr, ...) @rb_raise(i64 noundef %8, ptr noundef nonnull @.str.156, i64 noundef %9, ptr noundef nonnull %0) #21
  unreachable

10:                                               ; preds = %4
  %11 = load i64, ptr %2, align 8, !tbaa !253
  br label %31

12:                                               ; preds = %1
  %13 = load i64, ptr @rb_cISeq, align 8, !tbaa !42
  %14 = tail call i64 @rb_data_typed_object_zalloc(i64 noundef %13, i64 noundef 8, ptr noundef nonnull @iseqw_data_type) #20
  %15 = inttoptr i64 %14 to ptr
  %16 = getelementptr inbounds nuw i8, ptr %15, i64 24
  %17 = load i64, ptr %16, align 8, !tbaa !254
  %18 = and i64 %17, 2
  %.not.i = icmp eq i64 %18, 0
  %19 = getelementptr i8, ptr %15, i64 32
  br i1 %.not.i, label %20, label %RTYPEDDATA_GET_DATA.exit

20:                                               ; preds = %12
  %21 = load ptr, ptr %19, align 8, !tbaa !257
  br label %RTYPEDDATA_GET_DATA.exit

RTYPEDDATA_GET_DATA.exit:                         ; preds = %12, %20
  %22 = phi ptr [ %21, %20 ], [ %19, %12 ]
  %23 = ptrtoint ptr %0 to i64
  store i64 %23, ptr %22, align 8, !tbaa !42
  %24 = and i64 %23, 7
  %.not21 = icmp eq i64 %24, 0
  br i1 %.not21, label %25, label %rb_obj_write.exit

25:                                               ; preds = %RTYPEDDATA_GET_DATA.exit
  tail call void @rb_gc_writebarrier(i64 noundef %14, i64 noundef %23) #20
  br label %rb_obj_write.exit

rb_obj_write.exit:                                ; preds = %RTYPEDDATA_GET_DATA.exit, %25
  store i64 %14, ptr %2, align 8, !tbaa !42
  %26 = icmp eq i64 %14, 0
  %27 = and i64 %14, 7
  %28 = icmp ne i64 %27, 0
  %29 = or i1 %26, %28
  br i1 %29, label %rb_obj_write.exit20, label %30

30:                                               ; preds = %rb_obj_write.exit
  tail call void @rb_gc_writebarrier(i64 noundef %23, i64 noundef %14) #20
  br label %rb_obj_write.exit20

rb_obj_write.exit20:                              ; preds = %rb_obj_write.exit, %30
  tail call void @rb_obj_freeze_inline(i64 noundef %23) #20
  br label %31

31:                                               ; preds = %rb_obj_write.exit20, %10
  %.0 = phi i64 [ %11, %10 ], [ %14, %rb_obj_write.exit20 ]
  ret i64 %.0
}